target datalayout = "e-m:e-p270:32:32-p271:32:32-p272:64:64-i64:64-i128:128-f80:128-n8:16:32:64-S128"
target triple = "x86_64-pc-linux-gnu"

%struct.nameData = type { [64 x i8] }
%struct.HeapTupleData = type { i32, %struct.ItemPointerData, i32, ptr }
%struct.ItemPointerData = type { %struct.BlockIdData, i16 }
%struct.BlockIdData = type { i16, i16 }
%struct.HeapTupleHeaderData = type { %union.anon, %struct.ItemPointerData, i16, i16, i8, [0 x i8] }
%union.anon = type { %struct.HeapTupleFields }
%struct.HeapTupleFields = type { i32, i32, %union.anon.0 }
%union.anon.0 = type { i32 }
%struct.IndexAmRoutine = type { i32, i16, i16, i16, i8, i8, i8, i8, i8, i8, i8, i8, i8, i8, i8, i8, i8, i8, i8, i8, i8, i32, ptr, ptr, ptr, ptr, ptr, ptr, ptr, ptr, ptr, ptr, ptr, ptr, ptr, ptr, ptr, ptr, ptr, ptr, ptr, ptr, ptr, ptr, ptr, ptr, ptr, ptr }
%struct.OpFamilyMember = type { i8, i32, i32, i32, i32, i32, i8, i8, i32 }
%struct.FormData_pg_operator = type { i32, %struct.nameData, i32, i32, i8, i8, i8, i32, i32, i32, i32, i32, i32, i32, i32 }

@.str.1 = private unnamed_addr constant [14 x i8] c"opclasscmds.c\00", align 1
@.str.24 = private unnamed_addr constant [36 x i8] c"cache lookup failed for operator %u\00", align 1
@__func__.assignOperTypes = private unnamed_addr constant [16 x i8] c"assignOperTypes\00", align 1
@.str.25 = private unnamed_addr constant [31 x i8] c"index operators must be binary\00", align 1
@.str.26 = private unnamed_addr constant [55 x i8] c"access method \22%s\22 does not support ordering operators\00", align 1
@.str.27 = private unnamed_addr constant [43 x i8] c"index search operators must return boolean\00", align 1

; Function Attrs: inlinehint nounwind uwtable
define internal ptr @GETSTRUCT(ptr noundef %0) #2 {
  %2 = alloca ptr, align 8
  store ptr %0, ptr %2, align 8
  %3 = load ptr, ptr %2, align 8
  %4 = getelementptr inbounds nuw %struct.HeapTupleData, ptr %3, i32 0, i32 3
  %5 = load ptr, ptr %4, align 8
  %6 = load ptr, ptr %2, align 8
  %7 = getelementptr inbounds nuw %struct.HeapTupleData, ptr %6, i32 0, i32 3
  %8 = load ptr, ptr %7, align 8
  %9 = getelementptr inbounds nuw %struct.HeapTupleHeaderData, ptr %8, i32 0, i32 4
  %10 = load i8, ptr %9, align 2
  %11 = zext i8 %10 to i32
  %12 = sext i32 %11 to i64
  %13 = getelementptr inbounds i8, ptr %5, i64 %12
  ret ptr %13
}

; Function Attrs: inlinehint nounwind uwtable
define internal i64 @ObjectIdGetDatum(i32 noundef %0) #2 {
  %2 = alloca i32, align 4
  store i32 %0, ptr %2, align 4
  %3 = load i32, ptr %2, align 4
  %4 = zext i32 %3 to i64
  ret i64 %4
}

; Function Attrs: nounwind uwtable
define internal void @assignOperTypes(ptr noundef %0, i32 noundef %1, i32 noundef %2) #0 {
  %4 = alloca ptr, align 8
  %5 = alloca i32, align 4
  %6 = alloca i32, align 4
  %7 = alloca ptr, align 8
  %8 = alloca ptr, align 8
  %9 = alloca ptr, align 8
  store ptr %0, ptr %4, align 8
  store i32 %1, ptr %5, align 4
  store i32 %2, ptr %6, align 4
  call void @llvm.lifetime.start.p0(i64 8, ptr %7) #7
  call void @llvm.lifetime.start.p0(i64 8, ptr %8) #7
  %10 = load ptr, ptr %4, align 8
  %11 = getelementptr inbounds nuw %struct.OpFamilyMember, ptr %10, i32 0, i32 1
  %12 = load i32, ptr %11, align 4
  %13 = call i64 @ObjectIdGetDatum(i32 noundef %12)
  %14 = call ptr @SearchSysCache1(i32 noundef 40, i64 noundef %13)
  store ptr %14, ptr %7, align 8
  %15 = load ptr, ptr %7, align 8
  %16 = icmp ne ptr %15, null
  br i1 %16, label %31, label %17

17:                                               ; preds = %3
  br label %18

18:                                               ; preds = %17
  br i1 true, label %19, label %21

19:                                               ; preds = %18
  %20 = call zeroext i1 @errstart_cold(i32 noundef 21, ptr noundef null) #8
  br i1 %20, label %23, label %28

21:                                               ; preds = %18
  %22 = call zeroext i1 @errstart(i32 noundef 21, ptr noundef null)
  br i1 %22, label %23, label %28

23:                                               ; preds = %21, %19
  %24 = load ptr, ptr %4, align 8
  %25 = getelementptr inbounds nuw %struct.OpFamilyMember, ptr %24, i32 0, i32 1
  %26 = load i32, ptr %25, align 4
  %27 = call i32 (ptr, ...) @errmsg_internal(ptr noundef @.str.24, i32 noundef %26)
  call void @errfinish(ptr noundef @.str.1, i32 noundef 1145, ptr noundef @__func__.assignOperTypes)
  br label %28

28:                                               ; preds = %23, %21, %19
  unreachable

29:                                               ; No predecessors!
  br label %30

30:                                               ; preds = %29
  br label %31

31:                                               ; preds = %30, %3
  %32 = load ptr, ptr %7, align 8
  %33 = call ptr @GETSTRUCT(ptr noundef %32)
  store ptr %33, ptr %8, align 8
  %34 = load ptr, ptr %8, align 8
  %35 = getelementptr inbounds nuw %struct.FormData_pg_operator, ptr %34, i32 0, i32 4
  %36 = load i8, ptr %35, align 4
  %37 = sext i8 %36 to i32
  %38 = icmp ne i32 %37, 98
  br i1 %38, label %39, label %51

39:                                               ; preds = %31
  br label %40

40:                                               ; preds = %39
  br i1 true, label %41, label %43

41:                                               ; preds = %40
  %42 = call zeroext i1 @errstart_cold(i32 noundef 21, ptr noundef null) #8
  br i1 %42, label %45, label %48

43:                                               ; preds = %40
  %44 = call zeroext i1 @errstart(i32 noundef 21, ptr noundef null)
  br i1 %44, label %45, label %48

45:                                               ; preds = %43, %41
  %46 = call i32 @errcode(i32 noundef 117833860)
  %47 = call i32 (ptr, ...) @errmsg(ptr noundef @.str.25)
  call void @errfinish(ptr noundef @.str.1, i32 noundef 1154, ptr noundef @__func__.assignOperTypes)
  br label %48

48:                                               ; preds = %45, %43, %41
  unreachable

49:                                               ; No predecessors!
  br label %50

50:                                               ; preds = %49
  br label %51

51:                                               ; preds = %50, %31
  %52 = load ptr, ptr %4, align 8
  %53 = getelementptr inbounds nuw %struct.OpFamilyMember, ptr %52, i32 0, i32 5
  %54 = load i32, ptr %53, align 4
  %55 = icmp ne i32 %54, 0
  br i1 %55, label %56, label %78

56:                                               ; preds = %51
  call void @llvm.lifetime.start.p0(i64 8, ptr %9) #7
  %57 = load i32, ptr %5, align 4
  %58 = call ptr @GetIndexAmRoutineByAmId(i32 noundef %57, i1 noundef zeroext false)
  store ptr %58, ptr %9, align 8
  %59 = load ptr, ptr %9, align 8
  %60 = getelementptr inbounds nuw %struct.IndexAmRoutine, ptr %59, i32 0, i32 5
  %61 = load i8, ptr %60, align 1, !range !4, !noundef !5
  %62 = trunc i8 %61 to i1
  br i1 %62, label %77, label %63

63:                                               ; preds = %56
  br label %64

64:                                               ; preds = %63
  br i1 true, label %65, label %67

65:                                               ; preds = %64
  %66 = call zeroext i1 @errstart_cold(i32 noundef 21, ptr noundef null) #8
  br i1 %66, label %69, label %74

67:                                               ; preds = %64
  %68 = call zeroext i1 @errstart(i32 noundef 21, ptr noundef null)
  br i1 %68, label %69, label %74

69:                                               ; preds = %67, %65
  %70 = call i32 @errcode(i32 noundef 117833860)
  %71 = load i32, ptr %5, align 4
  %72 = call ptr @get_am_name(i32 noundef %71)
  %73 = call i32 (ptr, ...) @errmsg(ptr noundef @.str.26, ptr noundef %72)
  call void @errfinish(ptr noundef @.str.1, i32 noundef 1174, ptr noundef @__func__.assignOperTypes)
  br label %74

74:                                               ; preds = %69, %67, %65
  unreachable

75:                                               ; No predecessors!
  br label %76

76:                                               ; preds = %75
  br label %77

77:                                               ; preds = %76, %56
  call void @llvm.lifetime.end.p0(i64 8, ptr %9) #7
  br label %96

78:                                               ; preds = %51
  %79 = load ptr, ptr %8, align 8
  %80 = getelementptr inbounds nuw %struct.FormData_pg_operator, ptr %79, i32 0, i32 9
  %81 = load i32, ptr %80, align 4
  %82 = icmp ne i32 %81, 16
  br i1 %82, label %83, label %95

83:                                               ; preds = %78
  br label %84

84:                                               ; preds = %83
  br i1 true, label %85, label %87

85:                                               ; preds = %84
  %86 = call zeroext i1 @errstart_cold(i32 noundef 21, ptr noundef null) #8
  br i1 %86, label %89, label %92

87:                                               ; preds = %84
  %88 = call zeroext i1 @errstart(i32 noundef 21, ptr noundef null)
  br i1 %88, label %89, label %92

89:                                               ; preds = %87, %85
  %90 = call i32 @errcode(i32 noundef 117833860)
  %91 = call i32 (ptr, ...) @errmsg(ptr noundef @.str.27)
  call void @errfinish(ptr noundef @.str.1, i32 noundef 1184, ptr noundef @__func__.assignOperTypes)
  br label %92

92:                                               ; preds = %89, %87, %85
  unreachable

93:                                               ; No predecessors!
  br label %94

94:                                               ; preds = %93
  br label %95

95:                                               ; preds = %94, %78
  br label %96

96:                                               ; preds = %95, %77
  %97 = load ptr, ptr %4, align 8
  %98 = getelementptr inbounds nuw %struct.OpFamilyMember, ptr %97, i32 0, i32 3
  %99 = load i32, ptr %98, align 4
  %100 = icmp ne i32 %99, 0
  br i1 %100, label %107, label %101

101:                                              ; preds = %96
  %102 = load ptr, ptr %8, align 8
  %103 = getelementptr inbounds nuw %struct.FormData_pg_operator, ptr %102, i32 0, i32 7
  %104 = load i32, ptr %103, align 4
  %105 = load ptr, ptr %4, align 8
  %106 = getelementptr inbounds nuw %struct.OpFamilyMember, ptr %105, i32 0, i32 3
  store i32 %104, ptr %106, align 4
  br label %107

107:                                              ; preds = %101, %96
  %108 = load ptr, ptr %4, align 8
  %109 = getelementptr inbounds nuw %struct.OpFamilyMember, ptr %108, i32 0, i32 4
  %110 = load i32, ptr %109, align 4
  %111 = icmp ne i32 %110, 0
  br i1 %111, label %118, label %112

112:                                              ; preds = %107
  %113 = load ptr, ptr %8, align 8
  %114 = getelementptr inbounds nuw %struct.FormData_pg_operator, ptr %113, i32 0, i32 8
  %115 = load i32, ptr %114, align 4
  %116 = load ptr, ptr %4, align 8
  %117 = getelementptr inbounds nuw %struct.OpFamilyMember, ptr %116, i32 0, i32 4
  store i32 %115, ptr %117, align 4
  br label %118

118:                                              ; preds = %112, %107
  %119 = load ptr, ptr %7, align 8
  call void @ReleaseSysCache(ptr noundef %119)
  call void @llvm.lifetime.end.p0(i64 8, ptr %8) #7
  call void @llvm.lifetime.end.p0(i64 8, ptr %7) #7
  ret void
}