; Function Attrs: nounwind uwtable
define internal fastcc void @assignOperTypes(ptr noundef captures(none) %0, i32 noundef %1) unnamed_addr #0 {
  %3 = getelementptr inbounds nuw i8, ptr %0, i64 4
  %4 = load i32, ptr %3, align 4
  %5 = zext i32 %4 to i64
  %6 = tail call ptr @SearchSysCache1(i32 noundef 40, i64 noundef %5) #6
  %.not = icmp eq ptr %6, null
  br i1 %.not, label %7, label %11

7:                                                ; preds = %2
  %8 = tail call zeroext i1 @errstart_cold(i32 noundef 21, ptr noundef null) #7
  tail call void @llvm.assume(i1 %8)
  %9 = load i32, ptr %3, align 4
  %10 = tail call i32 (ptr, ...) @errmsg_internal(ptr noundef nonnull @.str.24, i32 noundef %9) #6
  tail call void @errfinish(ptr noundef nonnull @.str.1, i32 noundef 1145, ptr noundef nonnull @__func__.assignOperTypes) #6
  unreachable

11:                                               ; preds = %2
  %12 = getelementptr i8, ptr %6, i64 16
  %.val = load ptr, ptr %12, align 8
  %13 = getelementptr inbounds nuw i8, ptr %.val, i64 22
  %14 = load i8, ptr %13, align 2
  %15 = zext i8 %14 to i64
  %16 = getelementptr inbounds nuw i8, ptr %.val, i64 %15
  %17 = getelementptr inbounds nuw i8, ptr %16, i64 76
  %18 = load i8, ptr %17, align 4
  %.not16 = icmp eq i8 %18, 98
  br i1 %.not16, label %23, label %19

19:                                               ; preds = %11
  %20 = tail call zeroext i1 @errstart_cold(i32 noundef 21, ptr noundef null) #7
  tail call void @llvm.assume(i1 %20)
  %21 = tail call i32 @errcode(i32 noundef 117833860) #6
  %22 = tail call i32 (ptr, ...) @errmsg(ptr noundef nonnull @.str.25) #6
  tail call void @errfinish(ptr noundef nonnull @.str.1, i32 noundef 1154, ptr noundef nonnull @__func__.assignOperTypes) #6
  unreachable

23:                                               ; preds = %11
  %24 = getelementptr inbounds nuw i8, ptr %0, i64 20
  %25 = load i32, ptr %24, align 4
  %.not17 = icmp eq i32 %25, 0
  br i1 %.not17, label %36, label %26

26:                                               ; preds = %23
  %27 = tail call ptr @GetIndexAmRoutineByAmId(i32 noundef %1, i1 noundef zeroext false) #6
  %28 = getelementptr inbounds nuw i8, ptr %27, i64 11
  %29 = load i8, ptr %28, align 1, !range !4, !noundef !5
  %30 = trunc nuw i8 %29 to i1
  br i1 %30, label %43, label %31

31:                                               ; preds = %26
  %32 = tail call zeroext i1 @errstart_cold(i32 noundef 21, ptr noundef null) #7
  tail call void @llvm.assume(i1 %32)
  %33 = tail call i32 @errcode(i32 noundef 117833860) #6
  %34 = tail call ptr @get_am_name(i32 noundef %1) #6
  %35 = tail call i32 (ptr, ...) @errmsg(ptr noundef nonnull @.str.26, ptr noundef %34) #6
  tail call void @errfinish(ptr noundef nonnull @.str.1, i32 noundef 1174, ptr noundef nonnull @__func__.assignOperTypes) #6
  unreachable

36:                                               ; preds = %23
  %37 = getelementptr inbounds nuw i8, ptr %16, i64 88
  %38 = load i32, ptr %37, align 4
  %.not18 = icmp eq i32 %38, 16
  br i1 %.not18, label %43, label %39

39:                                               ; preds = %36
  %40 = tail call zeroext i1 @errstart_cold(i32 noundef 21, ptr noundef null) #7
  tail call void @llvm.assume(i1 %40)
  %41 = tail call i32 @errcode(i32 noundef 117833860) #6
  %42 = tail call i32 (ptr, ...) @errmsg(ptr noundef nonnull @.str.27) #6
  tail call void @errfinish(ptr noundef nonnull @.str.1, i32 noundef 1184, ptr noundef nonnull @__func__.assignOperTypes) #6
  unreachable

43:                                               ; preds = %26, %36
  %44 = getelementptr inbounds nuw i8, ptr %0, i64 12
  %45 = load i32, ptr %44, align 4
  %.not19 = icmp eq i32 %45, 0
  br i1 %.not19, label %46, label %49

46:                                               ; preds = %43
  %47 = getelementptr inbounds nuw i8, ptr %16, i64 80
  %48 = load i32, ptr %47, align 4
  store i32 %48, ptr %44, align 4
  br label %49

49:                                               ; preds = %46, %43
  %50 = getelementptr inbounds nuw i8, ptr %0, i64 16
  %51 = load i32, ptr %50, align 4
  %.not20 = icmp eq i32 %51, 0
  br i1 %.not20, label %52, label %55

52:                                               ; preds = %49
  %53 = getelementptr inbounds nuw i8, ptr %16, i64 84
  %54 = load i32, ptr %53, align 4
  store i32 %54, ptr %50, align 4
  br label %55

55:                                               ; preds = %52, %49
  tail call void @ReleaseSysCache(ptr noundef nonnull %6) #6
  ret void
}